; Function Attrs: mustprogress uwtable
define void @_ZN3gmx20InMemoryDeserializer6doRealEPf(ptr noundef nonnull align 8 dereferenceable(16) %0, ptr nocapture noundef writeonly %1) unnamed_addr #1 align 2 {
  %3 = alloca double, align 8
  %4 = alloca float, align 4
  %5 = getelementptr inbounds i8, ptr %0, i64 8
  %6 = load ptr, ptr %5, align 8
  %7 = getelementptr inbounds i8, ptr %6, i64 16
  %8 = load i8, ptr %7, align 8
  %9 = trunc i8 %8 to i1
  br i1 %9, label %10, label %16

10:                                               ; preds = %2
  store double 0.000000e+00, ptr %3, align 8
  %11 = load ptr, ptr %0, align 8
  %12 = getelementptr inbounds i8, ptr %11, i64 88
  %13 = load ptr, ptr %12, align 8
  call void %13(ptr noundef nonnull align 8 dereferenceable(16) %0, ptr noundef nonnull %3)
  %14 = load double, ptr %3, align 8
  %15 = fptrunc double %14 to float
  br label %21

16:                                               ; preds = %2
  store float 0.000000e+00, ptr %4, align 4
  %17 = load ptr, ptr %0, align 8
  %18 = getelementptr inbounds i8, ptr %17, i64 80
  %19 = load ptr, ptr %18, align 8
  call void %19(ptr noundef nonnull align 8 dereferenceable(16) %0, ptr noundef nonnull %4)
  %20 = load float, ptr %4, align 4
  br label %21

21:                                               ; preds = %16, %10
  %storemerge = phi float [ %20, %16 ], [ %15, %10 ]
  store float %storemerge, ptr %1, align 4
  ret void
}